; Function Attrs: mustprogress uwtable
define internal void @_ZNSt17_Function_handlerIFvvEZN9grpc_core12_GLOBAL__N_18RingHash6Picker27EndpointConnectionAttempter12RunInExecCtxEPvN4absl12lts_202308026StatusEEUlvE_E9_M_invokeERKSt9_Any_data(ptr nocapture noundef nonnull readonly align 8 dereferenceable(16) %__functor) #3 align 2 personality ptr @__gxx_personality_v0 {
entry:
  %0 = load ptr, ptr %__functor, align 8
  %.val.i.i.i = load ptr, ptr %0, align 8
  %shutdown_.i.i.i = getelementptr inbounds i8, ptr %.val.i.i.i, i64 152
  %1 = load i8, ptr %shutdown_.i.i.i, align 8
  %2 = and i8 %1, 1
  %tobool.not.i.i.i = icmp eq i8 %2, 0
  br i1 %tobool.not.i.i.i, label %if.end.i.i.i, label %delete.notnull.i.i.i

if.end.i.i.i:                                     ; preds = %entry
  %endpoint_.i.i.i = getelementptr inbounds i8, ptr %0, i64 8
  %endpoint_.val.i.i.i = load ptr, ptr %endpoint_.i.i.i, align 8
  tail call fastcc void @_ZN9grpc_core12_GLOBAL__N_18RingHash16RingHashEndpoint23RequestConnectionLockedEv(ptr noundef nonnull align 8 dereferenceable(64) %endpoint_.val.i.i.i)
  %.pre.i.i.i = load ptr, ptr %__functor, align 8
  %isnull.i.i.i = icmp eq ptr %.pre.i.i.i, null
  br i1 %isnull.i.i.i, label %_ZSt10__invoke_rIvRZN9grpc_core12_GLOBAL__N_18RingHash6Picker27EndpointConnectionAttempter12RunInExecCtxEPvN4absl12lts_202308026StatusEEUlvE_JEENSt9enable_ifIX16is_invocable_r_vIT_T0_DpT1_EESC_E4typeEOSD_DpOSE_.exit, label %delete.notnull.i.i.i

delete.notnull.i.i.i:                             ; preds = %if.end.i.i.i, %entry
  %3 = phi ptr [ %.pre.i.i.i, %if.end.i.i.i ], [ %0, %entry ]
  %endpoint_.i.i.i.i = getelementptr inbounds i8, ptr %3, i64 8
  %endpoint_.val.i.i.i.i = load ptr, ptr %endpoint_.i.i.i.i, align 8
  %cmp.not.i.i.i.i.i = icmp eq ptr %endpoint_.val.i.i.i.i, null
  br i1 %cmp.not.i.i.i.i.i, label %_ZN9grpc_core13RefCountedPtrINS_12_GLOBAL__N_18RingHash16RingHashEndpointEED2Ev.exit.i.i.i.i, label %if.then.i.i.i.i.i

if.then.i.i.i.i.i:                                ; preds = %delete.notnull.i.i.i
  %refs_.i.i.i.i.i.i = getelementptr inbounds i8, ptr %endpoint_.val.i.i.i.i, i64 8
  %4 = atomicrmw sub ptr %refs_.i.i.i.i.i.i, i64 1 acq_rel, align 8
  %cmp.i.i.i.i.i.i.i = icmp eq i64 %4, 1
  br i1 %cmp.i.i.i.i.i.i.i, label %if.then.i.i.i.i.i.i, label %_ZN9grpc_core13RefCountedPtrINS_12_GLOBAL__N_18RingHash16RingHashEndpointEED2Ev.exit.i.i.i.i

if.then.i.i.i.i.i.i:                              ; preds = %if.then.i.i.i.i.i
  %vtable.i.i.i.i.i.i.i = load ptr, ptr %endpoint_.val.i.i.i.i, align 8
  %vfn.i.i.i.i.i.i.i = getelementptr inbounds i8, ptr %vtable.i.i.i.i.i.i.i, i64 16
  %5 = load ptr, ptr %vfn.i.i.i.i.i.i.i, align 8
  tail call void %5(ptr noundef nonnull align 8 dereferenceable(64) %endpoint_.val.i.i.i.i) #23
  br label %_ZN9grpc_core13RefCountedPtrINS_12_GLOBAL__N_18RingHash16RingHashEndpointEED2Ev.exit.i.i.i.i

_ZN9grpc_core13RefCountedPtrINS_12_GLOBAL__N_18RingHash16RingHashEndpointEED2Ev.exit.i.i.i.i: ; preds = %if.then.i.i.i.i.i.i, %if.then.i.i.i.i.i, %delete.notnull.i.i.i
  %this.val.i.i.i.i = load ptr, ptr %3, align 8
  %cmp.not.i1.i.i.i.i = icmp eq ptr %this.val.i.i.i.i, null
  br i1 %cmp.not.i1.i.i.i.i, label %_ZN9grpc_core12_GLOBAL__N_18RingHash6Picker27EndpointConnectionAttempterD2Ev.exit.i.i.i, label %if.then.i2.i.i.i.i

if.then.i2.i.i.i.i:                               ; preds = %_ZN9grpc_core13RefCountedPtrINS_12_GLOBAL__N_18RingHash16RingHashEndpointEED2Ev.exit.i.i.i.i
  %refs_.i.i3.i.i.i.i = getelementptr inbounds i8, ptr %this.val.i.i.i.i, i64 8
  %6 = atomicrmw sub ptr %refs_.i.i3.i.i.i.i, i64 1 acq_rel, align 8
  %cmp.i.i.i4.i.i.i.i = icmp eq i64 %6, 1
  br i1 %cmp.i.i.i4.i.i.i.i, label %if.then.i.i5.i.i.i.i, label %_ZN9grpc_core12_GLOBAL__N_18RingHash6Picker27EndpointConnectionAttempterD2Ev.exit.i.i.i

if.then.i.i5.i.i.i.i:                             ; preds = %if.then.i2.i.i.i.i
  %vtable.i.i.i6.i.i.i.i = load ptr, ptr %this.val.i.i.i.i, align 8
  %vfn.i.i.i7.i.i.i.i = getelementptr inbounds i8, ptr %vtable.i.i.i6.i.i.i.i, i64 16
  %7 = load ptr, ptr %vfn.i.i.i7.i.i.i.i, align 8
  tail call void %7(ptr noundef nonnull align 8 dereferenceable(56) %this.val.i.i.i.i) #23
  br label %_ZN9grpc_core12_GLOBAL__N_18RingHash6Picker27EndpointConnectionAttempterD2Ev.exit.i.i.i

_ZN9grpc_core12_GLOBAL__N_18RingHash6Picker27EndpointConnectionAttempterD2Ev.exit.i.i.i: ; preds = %if.then.i.i5.i.i.i.i, %if.then.i2.i.i.i.i, %_ZN9grpc_core13RefCountedPtrINS_12_GLOBAL__N_18RingHash16RingHashEndpointEED2Ev.exit.i.i.i.i
  tail call void @_ZdlPv(ptr noundef nonnull %3) #25
  br label %_ZSt10__invoke_rIvRZN9grpc_core12_GLOBAL__N_18RingHash6Picker27EndpointConnectionAttempter12RunInExecCtxEPvN4absl12lts_202308026StatusEEUlvE_JEENSt9enable_ifIX16is_invocable_r_vIT_T0_DpT1_EESC_E4typeEOSD_DpOSE_.exit

_ZSt10__invoke_rIvRZN9grpc_core12_GLOBAL__N_18RingHash6Picker27EndpointConnectionAttempter12RunInExecCtxEPvN4absl12lts_202308026StatusEEUlvE_JEENSt9enable_ifIX16is_invocable_r_vIT_T0_DpT1_EESC_E4typeEOSD_DpOSE_.exit: ; preds = %if.end.i.i.i, %_ZN9grpc_core12_GLOBAL__N_18RingHash6Picker27EndpointConnectionAttempterD2Ev.exit.i.i.i
  ret void
}